target datalayout = "e-m:e-p270:32:32-p271:32:32-p272:64:64-i64:64-i128:128-f80:128-n8:16:32:64-S128"
target triple = "x86_64-pc-linux-gnu"

%class.zstring = type { %class.buffer }
%class.buffer = type { ptr, i32, i32, [64 x i8] }

; Function Attrs: mustprogress uwtable
define linkonce_odr hidden void @_Z13dealloc_svectIjEvPT_(ptr noundef %0) #4 comdat {
  %2 = alloca ptr, align 8
  store ptr %0, ptr %2, align 8, !tbaa !11
  %3 = load ptr, ptr %2, align 8, !tbaa !11
  %4 = icmp eq ptr %3, null
  br i1 %4, label %5, label %6

5:                                                ; preds = %1
  br label %8

6:                                                ; preds = %1
  %7 = load ptr, ptr %2, align 8, !tbaa !11
  call void @_ZN6memory10deallocateEPv(ptr noundef %7)
  br label %8

8:                                                ; preds = %6, %5
  ret void
}

; Function Attrs: mustprogress uwtable
define linkonce_odr hidden void @_ZN6bufferIjLb1ELj16EE11free_memoryEv(ptr noundef nonnull align 8 dereferenceable(80) %0) #4 comdat align 2 {
  %2 = alloca ptr, align 8
  store ptr %0, ptr %2, align 8, !tbaa !21
  %3 = load ptr, ptr %2, align 8
  %4 = getelementptr inbounds nuw %class.buffer, ptr %3, i32 0, i32 0
  %5 = load ptr, ptr %4, align 8, !tbaa !23
  %6 = getelementptr inbounds nuw %class.buffer, ptr %3, i32 0, i32 3
  %7 = getelementptr inbounds [64 x i8], ptr %6, i64 0, i64 0
  %8 = icmp ne ptr %5, %7
  br i1 %8, label %9, label %12

9:                                                ; preds = %1
  %10 = getelementptr inbounds nuw %class.buffer, ptr %3, i32 0, i32 0
  %11 = load ptr, ptr %10, align 8, !tbaa !23
  call void @_Z13dealloc_svectIjEvPT_(ptr noundef %11)
  br label %12

12:                                               ; preds = %9, %1
  ret void
}

; Function Attrs: mustprogress uwtable
define linkonce_odr hidden void @_ZN6bufferIjLb1ELj16EE6expandEv(ptr noundef nonnull align 8 dereferenceable(80) %0) #4 comdat align 2 {
  %2 = alloca ptr, align 8
  %3 = alloca i32, align 4
  %4 = alloca ptr, align 8
  %5 = alloca i32, align 4
  store ptr %0, ptr %2, align 8, !tbaa !21
  %6 = load ptr, ptr %2, align 8
  call void @llvm.lifetime.start.p0(i64 4, ptr %3) #3
  %7 = getelementptr inbounds nuw %class.buffer, ptr %6, i32 0, i32 2
  %8 = load i32, ptr %7, align 4, !tbaa !26
  %9 = shl i32 %8, 1
  store i32 %9, ptr %3, align 4, !tbaa !16
  call void @llvm.lifetime.start.p0(i64 8, ptr %4) #3
  %10 = load i32, ptr %3, align 4, !tbaa !16
  %11 = zext i32 %10 to i64
  %12 = mul i64 4, %11
  %13 = call noalias noundef ptr @_ZN6memory8allocateEm(i64 noundef %12)
  store ptr %13, ptr %4, align 8, !tbaa !11
  call void @llvm.lifetime.start.p0(i64 4, ptr %5) #3
  store i32 0, ptr %5, align 4, !tbaa !16
  br label %14

14:                                               ; preds = %31, %1
  %15 = load i32, ptr %5, align 4, !tbaa !16
  %16 = getelementptr inbounds nuw %class.buffer, ptr %6, i32 0, i32 1
  %17 = load i32, ptr %16, align 8, !tbaa !25
  %18 = icmp ult i32 %15, %17
  br i1 %18, label %20, label %19

19:                                               ; preds = %14
  call void @llvm.lifetime.end.p0(i64 4, ptr %5) #3
  br label %34

20:                                               ; preds = %14
  %21 = load ptr, ptr %4, align 8, !tbaa !11
  %22 = load i32, ptr %5, align 4, !tbaa !16
  %23 = zext i32 %22 to i64
  %24 = getelementptr inbounds nuw i32, ptr %21, i64 %23
  %25 = getelementptr inbounds nuw %class.buffer, ptr %6, i32 0, i32 0
  %26 = load ptr, ptr %25, align 8, !tbaa !23
  %27 = load i32, ptr %5, align 4, !tbaa !16
  %28 = zext i32 %27 to i64
  %29 = getelementptr inbounds nuw i32, ptr %26, i64 %28
  %30 = load i32, ptr %29, align 4, !tbaa !16
  store i32 %30, ptr %24, align 4, !tbaa !16
  br label %31

31:                                               ; preds = %20
  %32 = load i32, ptr %5, align 4, !tbaa !16
  %33 = add i32 %32, 1
  store i32 %33, ptr %5, align 4, !tbaa !16
  br label %14, !llvm.loop !87

34:                                               ; preds = %19
  call void @_ZN6bufferIjLb1ELj16EE11free_memoryEv(ptr noundef nonnull align 8 dereferenceable(80) %6)
  %35 = load ptr, ptr %4, align 8, !tbaa !11
  %36 = getelementptr inbounds nuw %class.buffer, ptr %6, i32 0, i32 0
  store ptr %35, ptr %36, align 8, !tbaa !23
  %37 = load i32, ptr %3, align 4, !tbaa !16
  %38 = getelementptr inbounds nuw %class.buffer, ptr %6, i32 0, i32 2
  store i32 %37, ptr %38, align 4, !tbaa !26
  call void @llvm.lifetime.end.p0(i64 8, ptr %4) #3
  call void @llvm.lifetime.end.p0(i64 4, ptr %3) #3
  ret void
}

; Function Attrs: mustprogress uwtable
define linkonce_odr hidden void @_ZN6bufferIjLb1ELj16EE9push_backERKj(ptr noundef nonnull align 8 dereferenceable(80) %0, ptr noundef nonnull align 4 dereferenceable(4) %1) #4 comdat align 2 {
  %3 = alloca ptr, align 8
  %4 = alloca ptr, align 8
  store ptr %0, ptr %3, align 8, !tbaa !21
  store ptr %1, ptr %4, align 8, !tbaa !11
  %5 = load ptr, ptr %3, align 8
  %6 = getelementptr inbounds nuw %class.buffer, ptr %5, i32 0, i32 1
  %7 = load i32, ptr %6, align 8, !tbaa !25
  %8 = getelementptr inbounds nuw %class.buffer, ptr %5, i32 0, i32 2
  %9 = load i32, ptr %8, align 4, !tbaa !26
  %10 = icmp uge i32 %7, %9
  br i1 %10, label %11, label %12

11:                                               ; preds = %2
  call void @_ZN6bufferIjLb1ELj16EE6expandEv(ptr noundef nonnull align 8 dereferenceable(80) %5)
  br label %12

12:                                               ; preds = %11, %2
  %13 = getelementptr inbounds nuw %class.buffer, ptr %5, i32 0, i32 0
  %14 = load ptr, ptr %13, align 8, !tbaa !23
  %15 = getelementptr inbounds nuw %class.buffer, ptr %5, i32 0, i32 1
  %16 = load i32, ptr %15, align 8, !tbaa !25
  %17 = zext i32 %16 to i64
  %18 = getelementptr inbounds nuw i32, ptr %14, i64 %17
  %19 = load ptr, ptr %4, align 8, !tbaa !11
  %20 = load i32, ptr %19, align 4, !tbaa !16
  store i32 %20, ptr %18, align 4, !tbaa !16
  %21 = getelementptr inbounds nuw %class.buffer, ptr %5, i32 0, i32 1
  %22 = load i32, ptr %21, align 8, !tbaa !25
  %23 = add i32 %22, 1
  store i32 %23, ptr %21, align 8, !tbaa !25
  ret void
}

; Function Attrs: mustprogress uwtable
define linkonce_odr hidden void @_ZN6bufferIjLb1ELj16EE6appendEjPKj(ptr noundef nonnull align 8 dereferenceable(80) %0, i32 noundef %1, ptr noundef %2) #4 comdat align 2 {
  %4 = alloca ptr, align 8
  %5 = alloca i32, align 4
  %6 = alloca ptr, align 8
  %7 = alloca i32, align 4
  store ptr %0, ptr %4, align 8, !tbaa !21
  store i32 %1, ptr %5, align 4, !tbaa !16
  store ptr %2, ptr %6, align 8, !tbaa !11
  %8 = load ptr, ptr %4, align 8
  call void @llvm.lifetime.start.p0(i64 4, ptr %7) #3
  store i32 0, ptr %7, align 4, !tbaa !16
  br label %9

9:                                                ; preds = %19, %3
  %10 = load i32, ptr %7, align 4, !tbaa !16
  %11 = load i32, ptr %5, align 4, !tbaa !16
  %12 = icmp ult i32 %10, %11
  br i1 %12, label %14, label %13

13:                                               ; preds = %9
  call void @llvm.lifetime.end.p0(i64 4, ptr %7) #3
  br label %22

14:                                               ; preds = %9
  %15 = load ptr, ptr %6, align 8, !tbaa !11
  %16 = load i32, ptr %7, align 4, !tbaa !16
  %17 = zext i32 %16 to i64
  %18 = getelementptr inbounds nuw i32, ptr %15, i64 %17
  call void @_ZN6bufferIjLb1ELj16EE9push_backERKj(ptr noundef nonnull align 8 dereferenceable(80) %8, ptr noundef nonnull align 4 dereferenceable(4) %18)
  br label %19

19:                                               ; preds = %14
  %20 = load i32, ptr %7, align 4, !tbaa !16
  %21 = add i32 %20, 1
  store i32 %21, ptr %7, align 4, !tbaa !16
  br label %9, !llvm.loop !86

22:                                               ; preds = %13
  ret void
}

; Function Attrs: mustprogress nounwind uwtable
define linkonce_odr hidden noundef ptr @_ZNK6bufferIjLb1ELj16EE4dataEv(ptr noundef nonnull align 8 dereferenceable(80) %0) #6 comdat align 2 {
  %2 = alloca ptr, align 8
  store ptr %0, ptr %2, align 8, !tbaa !21
  %3 = load ptr, ptr %2, align 8
  %4 = getelementptr inbounds nuw %class.buffer, ptr %3, i32 0, i32 0
  %5 = load ptr, ptr %4, align 8, !tbaa !23
  ret ptr %5
}

; Function Attrs: mustprogress nounwind uwtable
define linkonce_odr hidden noundef i32 @_ZNK6bufferIjLb1ELj16EE4sizeEv(ptr noundef nonnull align 8 dereferenceable(80) %0) #6 comdat align 2 {
  %2 = alloca ptr, align 8
  store ptr %0, ptr %2, align 8, !tbaa !21
  %3 = load ptr, ptr %2, align 8
  %4 = getelementptr inbounds nuw %class.buffer, ptr %3, i32 0, i32 1
  %5 = load i32, ptr %4, align 8, !tbaa !25
  ret i32 %5
}

; Function Attrs: mustprogress uwtable
define linkonce_odr hidden void @_ZN6bufferIjLb1ELj16EEC2ERKS0_(ptr noundef nonnull align 8 dereferenceable(80) %0, ptr noundef nonnull align 8 dereferenceable(80) %1) unnamed_addr #4 comdat align 2 {
  %3 = alloca ptr, align 8
  %4 = alloca ptr, align 8
  %5 = alloca i32, align 4
  %6 = alloca i32, align 4
  store ptr %0, ptr %3, align 8, !tbaa !21
  store ptr %1, ptr %4, align 8, !tbaa !21
  %7 = load ptr, ptr %3, align 8
  %8 = getelementptr inbounds nuw %class.buffer, ptr %7, i32 0, i32 0
  %9 = getelementptr inbounds nuw %class.buffer, ptr %7, i32 0, i32 3
  %10 = getelementptr inbounds [64 x i8], ptr %9, i64 0, i64 0
  store ptr %10, ptr %8, align 8, !tbaa !23
  %11 = getelementptr inbounds nuw %class.buffer, ptr %7, i32 0, i32 1
  store i32 0, ptr %11, align 8, !tbaa !25
  %12 = getelementptr inbounds nuw %class.buffer, ptr %7, i32 0, i32 2
  store i32 16, ptr %12, align 4, !tbaa !26
  call void @llvm.lifetime.start.p0(i64 4, ptr %5) #3
  store i32 0, ptr %5, align 4, !tbaa !16
  call void @llvm.lifetime.start.p0(i64 4, ptr %6) #3
  %13 = load ptr, ptr %4, align 8, !tbaa !21
  %14 = call noundef i32 @_ZNK6bufferIjLb1ELj16EE4sizeEv(ptr noundef nonnull align 8 dereferenceable(80) %13)
  store i32 %14, ptr %6, align 4, !tbaa !16
  br label %15

15:                                               ; preds = %27, %2
  %16 = load i32, ptr %5, align 4, !tbaa !16
  %17 = load i32, ptr %6, align 4, !tbaa !16
  %18 = icmp ult i32 %16, %17
  br i1 %18, label %20, label %19

19:                                               ; preds = %15
  call void @llvm.lifetime.end.p0(i64 4, ptr %6) #3
  call void @llvm.lifetime.end.p0(i64 4, ptr %5) #3
  br label %30

20:                                               ; preds = %15
  %21 = load ptr, ptr %4, align 8, !tbaa !21
  %22 = getelementptr inbounds nuw %class.buffer, ptr %21, i32 0, i32 0
  %23 = load ptr, ptr %22, align 8, !tbaa !23
  %24 = load i32, ptr %5, align 4, !tbaa !16
  %25 = zext i32 %24 to i64
  %26 = getelementptr inbounds nuw i32, ptr %23, i64 %25
  call void @_ZN6bufferIjLb1ELj16EE9push_backERKj(ptr noundef nonnull align 8 dereferenceable(80) %7, ptr noundef nonnull align 4 dereferenceable(4) %26)
  br label %27

27:                                               ; preds = %20
  %28 = load i32, ptr %5, align 4, !tbaa !16
  %29 = add i32 %28, 1
  store i32 %29, ptr %5, align 4, !tbaa !16
  br label %15, !llvm.loop !69

30:                                               ; preds = %19
  ret void
}

; Function Attrs: mustprogress uwtable
define linkonce_odr hidden void @_ZN6bufferIjLb1ELj16EE6appendERKS0_(ptr noundef nonnull align 8 dereferenceable(80) %0, ptr noundef nonnull align 8 dereferenceable(80) %1) #4 comdat align 2 {
  %3 = alloca ptr, align 8
  %4 = alloca ptr, align 8
  store ptr %0, ptr %3, align 8, !tbaa !21
  store ptr %1, ptr %4, align 8, !tbaa !21
  %5 = load ptr, ptr %3, align 8
  %6 = load ptr, ptr %4, align 8, !tbaa !21
  %7 = call noundef i32 @_ZNK6bufferIjLb1ELj16EE4sizeEv(ptr noundef nonnull align 8 dereferenceable(80) %6)
  %8 = load ptr, ptr %4, align 8, !tbaa !21
  %9 = call noundef ptr @_ZNK6bufferIjLb1ELj16EE4dataEv(ptr noundef nonnull align 8 dereferenceable(80) %8)
  call void @_ZN6bufferIjLb1ELj16EE6appendEjPKj(ptr noundef nonnull align 8 dereferenceable(80) %5, i32 noundef %7, ptr noundef %9)
  ret void
}

; Function Attrs: inlinehint mustprogress uwtable
define linkonce_odr hidden void @_ZN7zstringC2ERKS_(ptr noundef nonnull align 8 dereferenceable(80) %0, ptr noundef nonnull align 8 dereferenceable(80) %1) unnamed_addr #8 comdat align 2 {
  %3 = alloca ptr, align 8
  %4 = alloca ptr, align 8
  store ptr %0, ptr %3, align 8, !tbaa !3
  store ptr %1, ptr %4, align 8, !tbaa !3
  %5 = load ptr, ptr %3, align 8
  %6 = getelementptr inbounds nuw %class.zstring, ptr %5, i32 0, i32 0
  %7 = load ptr, ptr %4, align 8, !tbaa !3
  %8 = getelementptr inbounds nuw %class.zstring, ptr %7, i32 0, i32 0
  call void @_ZN6bufferIjLb1ELj16EEC2ERKS0_(ptr noundef nonnull align 8 dereferenceable(80) %6, ptr noundef nonnull align 8 dereferenceable(80) %8)
  ret void
}

; Function Attrs: mustprogress uwtable
define hidden void @_ZNK7zstringplERKS_(ptr dead_on_unwind noalias writable sret(%class.zstring) align 8 %0, ptr noundef nonnull align 8 dereferenceable(80) %1, ptr noundef nonnull align 8 dereferenceable(80) %2) #4 align 2 personality ptr @__gxx_personality_v0 {
  %4 = alloca ptr, align 8
  %5 = alloca ptr, align 8
  %6 = alloca ptr, align 8
  %7 = alloca i1, align 1
  %8 = alloca ptr, align 8
  %9 = alloca i32, align 4
  store ptr %0, ptr %4, align 8
  store ptr %1, ptr %5, align 8, !tbaa !3
  store ptr %2, ptr %6, align 8, !tbaa !3
  %10 = load ptr, ptr %5, align 8
  store i1 false, ptr %7, align 1
  call void @_ZN7zstringC2ERKS_(ptr noundef nonnull align 8 dereferenceable(80) %0, ptr noundef nonnull align 8 dereferenceable(80) %10)
  %11 = getelementptr inbounds nuw %class.zstring, ptr %0, i32 0, i32 0
  %12 = load ptr, ptr %6, align 8, !tbaa !3
  %13 = getelementptr inbounds nuw %class.zstring, ptr %12, i32 0, i32 0
  invoke void @_ZN6bufferIjLb1ELj16EE6appendERKS0_(ptr noundef nonnull align 8 dereferenceable(80) %11, ptr noundef nonnull align 8 dereferenceable(80) %13)
          to label %14 unwind label %16

14:                                               ; preds = %3
  store i1 true, ptr %7, align 1
  %15 = load i1, ptr %7, align 1
  br i1 %15, label %21, label %20

16:                                               ; preds = %3
  %17 = landingpad { ptr, i32 }
          cleanup
  %18 = extractvalue { ptr, i32 } %17, 0
  store ptr %18, ptr %8, align 8
  %19 = extractvalue { ptr, i32 } %17, 1
  store i32 %19, ptr %9, align 4
  call void @_ZN7zstringD2Ev(ptr noundef nonnull align 8 dereferenceable(80) %0) #3
  br label %22

20:                                               ; preds = %14
  call void @_ZN7zstringD2Ev(ptr noundef nonnull align 8 dereferenceable(80) %0) #3
  br label %21

21:                                               ; preds = %20, %14
  ret void

22:                                               ; preds = %16
  %23 = load ptr, ptr %8, align 8
  %24 = load i32, ptr %9, align 4
  %25 = insertvalue { ptr, i32 } poison, ptr %23, 0
  %26 = insertvalue { ptr, i32 } %25, i32 %24, 1
  resume { ptr, i32 } %26
}