; Function Attrs: mustprogress uwtable
define hidden void @_ZNK7zstringplERKS_(ptr dead_on_unwind noalias writable sret(%class.zstring) align 8 %0, ptr noundef nonnull readonly align 8 captures(none) dereferenceable(80) %1, ptr noundef nonnull readonly align 8 captures(none) dereferenceable(80) %2) local_unnamed_addr #3 align 2 personality ptr @__gxx_personality_v0 {
  %4 = getelementptr inbounds nuw i8, ptr %0, i64 16
  store ptr %4, ptr %0, align 8, !tbaa !13
  %5 = getelementptr inbounds nuw i8, ptr %0, i64 8
  store i32 0, ptr %5, align 8, !tbaa !16
  %6 = getelementptr inbounds nuw i8, ptr %0, i64 12
  store i32 16, ptr %6, align 4, !tbaa !17
  %7 = getelementptr inbounds nuw i8, ptr %1, i64 8
  %8 = load i32, ptr %7, align 8, !tbaa !16
  %.not.i.i = icmp eq i32 %8, 0
  br i1 %.not.i.i, label %_ZN7zstringC2ERKS_.exit, label %.lr.ph.preheader.i.i

.lr.ph.preheader.i.i:                             ; preds = %3
  %wide.trip.count.i.i = zext i32 %8 to i64
  br label %.lr.ph.i.i

.lr.ph.i.i:                                       ; preds = %_ZN6bufferIjLb1ELj16EE9push_backERKj.exit.i.i, %.lr.ph.preheader.i.i
  %.pre.i.i.i = phi ptr [ %4, %.lr.ph.preheader.i.i ], [ %.pre.i9.i.i, %_ZN6bufferIjLb1ELj16EE9push_backERKj.exit.i.i ]
  %9 = phi i32 [ 0, %.lr.ph.preheader.i.i ], [ %30, %_ZN6bufferIjLb1ELj16EE9push_backERKj.exit.i.i ]
  %indvars.iv.i.i = phi i64 [ 0, %.lr.ph.preheader.i.i ], [ %indvars.iv.next.i.i, %_ZN6bufferIjLb1ELj16EE9push_backERKj.exit.i.i ]
  %10 = load ptr, ptr %1, align 8, !tbaa !13
  %11 = getelementptr inbounds nuw i32, ptr %10, i64 %indvars.iv.i.i
  %12 = load i32, ptr %6, align 4, !tbaa !17
  %.not.i.i.i = icmp ult i32 %9, %12
  br i1 %.not.i.i.i, label %_ZN6bufferIjLb1ELj16EE9push_backERKj.exit.i.i, label %13

13:                                               ; preds = %.lr.ph.i.i
  %14 = shl i32 %12, 1
  %15 = zext i32 %14 to i64
  %16 = shl nuw nsw i64 %15, 2
  %17 = tail call noalias noundef ptr @_ZN6memory8allocateEm(i64 noundef %16)
  %18 = load i32, ptr %5, align 8, !tbaa !16
  %.not.i.i.i.i = icmp eq i32 %18, 0
  %.pre.i.i.i.i = load ptr, ptr %0, align 8, !tbaa !13
  br i1 %.not.i.i.i.i, label %._crit_edge.i.i.i.i, label %.lr.ph.i.i.i.i

.lr.ph.i.i.i.i:                                   ; preds = %13
  %wide.trip.count.i.i.i.i = zext i32 %18 to i64
  br label %21

._crit_edge.i.i.i.i:                              ; preds = %21, %13
  %.not.i.i.i.i.i = icmp eq ptr %.pre.i.i.i.i, %4
  %19 = icmp eq ptr %.pre.i.i.i.i, null
  %or.cond.i.i.i.i.i = or i1 %.not.i.i.i.i.i, %19
  br i1 %or.cond.i.i.i.i.i, label %_ZN6bufferIjLb1ELj16EE6expandEv.exit.i.i.i, label %20

20:                                               ; preds = %._crit_edge.i.i.i.i
  tail call void @_ZN6memory10deallocateEPv(ptr noundef nonnull %.pre.i.i.i.i)
  %.pre2.pre.i.i.i = load i32, ptr %5, align 8, !tbaa !16
  br label %_ZN6bufferIjLb1ELj16EE6expandEv.exit.i.i.i

21:                                               ; preds = %21, %.lr.ph.i.i.i.i
  %indvars.iv.i.i.i.i = phi i64 [ 0, %.lr.ph.i.i.i.i ], [ %indvars.iv.next.i.i.i.i, %21 ]
  %22 = getelementptr inbounds nuw i32, ptr %17, i64 %indvars.iv.i.i.i.i
  %23 = getelementptr inbounds nuw i32, ptr %.pre.i.i.i.i, i64 %indvars.iv.i.i.i.i
  %24 = load i32, ptr %23, align 4, !tbaa !9
  store i32 %24, ptr %22, align 4, !tbaa !9
  %indvars.iv.next.i.i.i.i = add nuw nsw i64 %indvars.iv.i.i.i.i, 1
  %exitcond.not.i.i.i.i = icmp eq i64 %indvars.iv.next.i.i.i.i, %wide.trip.count.i.i.i.i
  br i1 %exitcond.not.i.i.i.i, label %._crit_edge.i.i.i.i, label %21, !llvm.loop !18

_ZN6bufferIjLb1ELj16EE6expandEv.exit.i.i.i:       ; preds = %20, %._crit_edge.i.i.i.i
  %.pre2.i.i.i = phi i32 [ %18, %._crit_edge.i.i.i.i ], [ %.pre2.pre.i.i.i, %20 ]
  store ptr %17, ptr %0, align 8, !tbaa !13
  store i32 %14, ptr %6, align 4, !tbaa !17
  br label %_ZN6bufferIjLb1ELj16EE9push_backERKj.exit.i.i

_ZN6bufferIjLb1ELj16EE9push_backERKj.exit.i.i:    ; preds = %_ZN6bufferIjLb1ELj16EE6expandEv.exit.i.i.i, %.lr.ph.i.i
  %.pre.i9.i.i = phi ptr [ %17, %_ZN6bufferIjLb1ELj16EE6expandEv.exit.i.i.i ], [ %.pre.i.i.i, %.lr.ph.i.i ]
  %25 = phi i32 [ %.pre2.i.i.i, %_ZN6bufferIjLb1ELj16EE6expandEv.exit.i.i.i ], [ %9, %.lr.ph.i.i ]
  %26 = zext i32 %25 to i64
  %27 = getelementptr inbounds nuw i32, ptr %.pre.i9.i.i, i64 %26
  %28 = load i32, ptr %11, align 4, !tbaa !9
  store i32 %28, ptr %27, align 4, !tbaa !9
  %29 = load i32, ptr %5, align 8, !tbaa !16
  %30 = add i32 %29, 1
  store i32 %30, ptr %5, align 8, !tbaa !16
  %indvars.iv.next.i.i = add nuw nsw i64 %indvars.iv.i.i, 1
  %exitcond.not.i.i = icmp eq i64 %indvars.iv.next.i.i, %wide.trip.count.i.i
  br i1 %exitcond.not.i.i, label %_ZN7zstringC2ERKS_.exit, label %.lr.ph.i.i, !llvm.loop !25

_ZN7zstringC2ERKS_.exit:                          ; preds = %_ZN6bufferIjLb1ELj16EE9push_backERKj.exit.i.i, %3
  %.pre.i.i.i2530 = phi ptr [ %4, %3 ], [ %.pre.i9.i.i, %_ZN6bufferIjLb1ELj16EE9push_backERKj.exit.i.i ]
  %.pre.i.i = phi i32 [ 0, %3 ], [ %30, %_ZN6bufferIjLb1ELj16EE9push_backERKj.exit.i.i ]
  %31 = getelementptr inbounds nuw i8, ptr %2, i64 8
  %32 = load i32, ptr %31, align 8, !tbaa !16
  %33 = load ptr, ptr %2, align 8, !tbaa !13
  %.not.i.i4 = icmp eq i32 %32, 0
  br i1 %.not.i.i4, label %_ZN6bufferIjLb1ELj16EE6appendERKS0_.exit, label %.lr.ph.i.i5

.lr.ph.i.i5:                                      ; preds = %_ZN7zstringC2ERKS_.exit
  %wide.trip.count.i.i6 = zext i32 %32 to i64
  br label %34

34:                                               ; preds = %_ZN6bufferIjLb1ELj16EE9push_backERKj.exit.i.i22, %.lr.ph.i.i5
  %.pre.i.i.i25 = phi ptr [ %.pre.i.i.i2530, %.lr.ph.i.i5 ], [ %.pre.i.i.i2529, %_ZN6bufferIjLb1ELj16EE9push_backERKj.exit.i.i22 ]
  %35 = phi i32 [ %.pre.i.i, %.lr.ph.i.i5 ], [ %55, %_ZN6bufferIjLb1ELj16EE9push_backERKj.exit.i.i22 ]
  %indvars.iv.i.i7 = phi i64 [ 0, %.lr.ph.i.i5 ], [ %indvars.iv.next.i.i23, %_ZN6bufferIjLb1ELj16EE9push_backERKj.exit.i.i22 ]
  %36 = getelementptr inbounds nuw i32, ptr %33, i64 %indvars.iv.i.i7
  %37 = load i32, ptr %6, align 4, !tbaa !17
  %.not.i.i.i8 = icmp ult i32 %35, %37
  br i1 %.not.i.i.i8, label %_ZN6bufferIjLb1ELj16EE9push_backERKj.exit.i.i22, label %38

38:                                               ; preds = %34
  %39 = shl i32 %37, 1
  %40 = zext i32 %39 to i64
  %41 = shl nuw nsw i64 %40, 2
  %42 = invoke noalias noundef ptr @_ZN6memory8allocateEm(i64 noundef %41)
          to label %.noexc unwind label %56

.noexc:                                           ; preds = %38
  %43 = load i32, ptr %5, align 8, !tbaa !16
  %.not.i.i.i.i9 = icmp eq i32 %43, 0
  %.pre.i.i.i.i10 = load ptr, ptr %0, align 8, !tbaa !13
  br i1 %.not.i.i.i.i9, label %._crit_edge.i.i.i.i16, label %.lr.ph.i.i.i.i11

.lr.ph.i.i.i.i11:                                 ; preds = %.noexc
  %wide.trip.count.i.i.i.i12 = zext i32 %43 to i64
  br label %46

._crit_edge.i.i.i.i16:                            ; preds = %46, %.noexc
  %.not.i.i.i.i.i17 = icmp eq ptr %.pre.i.i.i.i10, %4
  %44 = icmp eq ptr %.pre.i.i.i.i10, null
  %or.cond.i.i.i.i.i18 = or i1 %.not.i.i.i.i.i17, %44
  br i1 %or.cond.i.i.i.i.i18, label %_ZN6bufferIjLb1ELj16EE6expandEv.exit.i.i.i20, label %45

45:                                               ; preds = %._crit_edge.i.i.i.i16
  invoke void @_ZN6memory10deallocateEPv(ptr noundef nonnull %.pre.i.i.i.i10)
          to label %.noexc26 unwind label %56

.noexc26:                                         ; preds = %45
  %.pre2.pre.i.i.i19 = load i32, ptr %5, align 8, !tbaa !16
  br label %_ZN6bufferIjLb1ELj16EE6expandEv.exit.i.i.i20

46:                                               ; preds = %46, %.lr.ph.i.i.i.i11
  %indvars.iv.i.i.i.i13 = phi i64 [ 0, %.lr.ph.i.i.i.i11 ], [ %indvars.iv.next.i.i.i.i14, %46 ]
  %47 = getelementptr inbounds nuw i32, ptr %42, i64 %indvars.iv.i.i.i.i13
  %48 = getelementptr inbounds nuw i32, ptr %.pre.i.i.i.i10, i64 %indvars.iv.i.i.i.i13
  %49 = load i32, ptr %48, align 4, !tbaa !9
  store i32 %49, ptr %47, align 4, !tbaa !9
  %indvars.iv.next.i.i.i.i14 = add nuw nsw i64 %indvars.iv.i.i.i.i13, 1
  %exitcond.not.i.i.i.i15 = icmp eq i64 %indvars.iv.next.i.i.i.i14, %wide.trip.count.i.i.i.i12
  br i1 %exitcond.not.i.i.i.i15, label %._crit_edge.i.i.i.i16, label %46, !llvm.loop !18

_ZN6bufferIjLb1ELj16EE6expandEv.exit.i.i.i20:     ; preds = %.noexc26, %._crit_edge.i.i.i.i16
  %.pre2.i.i.i21 = phi i32 [ %43, %._crit_edge.i.i.i.i16 ], [ %.pre2.pre.i.i.i19, %.noexc26 ]
  store ptr %42, ptr %0, align 8, !tbaa !13
  store i32 %39, ptr %6, align 4, !tbaa !17
  br label %_ZN6bufferIjLb1ELj16EE9push_backERKj.exit.i.i22

_ZN6bufferIjLb1ELj16EE9push_backERKj.exit.i.i22:  ; preds = %34, %_ZN6bufferIjLb1ELj16EE6expandEv.exit.i.i.i20
  %.pre.i.i.i2529 = phi ptr [ %42, %_ZN6bufferIjLb1ELj16EE6expandEv.exit.i.i.i20 ], [ %.pre.i.i.i25, %34 ]
  %50 = phi i32 [ %.pre2.i.i.i21, %_ZN6bufferIjLb1ELj16EE6expandEv.exit.i.i.i20 ], [ %35, %34 ]
  %51 = zext i32 %50 to i64
  %52 = getelementptr inbounds nuw i32, ptr %.pre.i.i.i2529, i64 %51
  %53 = load i32, ptr %36, align 4, !tbaa !9
  store i32 %53, ptr %52, align 4, !tbaa !9
  %54 = load i32, ptr %5, align 8, !tbaa !16
  %55 = add i32 %54, 1
  store i32 %55, ptr %5, align 8, !tbaa !16
  %indvars.iv.next.i.i23 = add nuw nsw i64 %indvars.iv.i.i7, 1
  %exitcond.not.i.i24 = icmp eq i64 %indvars.iv.next.i.i23, %wide.trip.count.i.i6
  br i1 %exitcond.not.i.i24, label %_ZN6bufferIjLb1ELj16EE6appendERKS0_.exit, label %34, !llvm.loop !27

56:                                               ; preds = %45, %38
  %57 = landingpad { ptr, i32 }
          cleanup
  tail call void @_ZN7zstringD2Ev(ptr noundef nonnull align 8 dereferenceable(80) %0) #20
  resume { ptr, i32 } %57

_ZN6bufferIjLb1ELj16EE6appendERKS0_.exit:         ; preds = %_ZN6bufferIjLb1ELj16EE9push_backERKj.exit.i.i22, %_ZN7zstringC2ERKS_.exit
  ret void
}